; Function Attrs: mustprogress uwtable
define hidden void @_ZN5zxing6qrcode15BitMatrixParser9setMirrorEb(ptr noundef nonnull align 8 captures(none) dereferenceable(41) initializes((24, 32), (40, 41)) %0, i1 noundef zeroext %1) local_unnamed_addr #2 align 2 {
  %3 = getelementptr inbounds nuw i8, ptr %0, i64 24
  store ptr null, ptr %3, align 8, !tbaa !58
  %4 = getelementptr inbounds nuw i8, ptr %0, i64 32
  %5 = load ptr, ptr %4, align 8, !tbaa !52
  %.not5.i.i = icmp eq ptr %5, null
  br i1 %.not5.i.i, label %_ZN5zxing3RefINS_6qrcode17FormatInformationEEaSEPS2_.exit, label %6

6:                                                ; preds = %2
  %7 = getelementptr inbounds nuw i8, ptr %5, i64 8
  %8 = load i32, ptr %7, align 8, !tbaa !42
  %9 = add i32 %8, -1
  store i32 %9, ptr %7, align 8, !tbaa !42
  %10 = icmp eq i32 %9, 0
  br i1 %10, label %11, label %_ZN5zxing3RefINS_6qrcode17FormatInformationEEaSEPS2_.exit

11:                                               ; preds = %6
  store i32 -559026175, ptr %7, align 8, !tbaa !42
  %12 = load ptr, ptr %5, align 8, !tbaa !43
  %13 = getelementptr inbounds nuw i8, ptr %12, i64 8
  %14 = load ptr, ptr %13, align 8
  tail call void %14(ptr noundef nonnull align 8 dereferenceable(12) %5) #11
  br label %_ZN5zxing3RefINS_6qrcode17FormatInformationEEaSEPS2_.exit

_ZN5zxing3RefINS_6qrcode17FormatInformationEEaSEPS2_.exit: ; preds = %2, %6, %11
  %15 = zext i1 %1 to i8
  store ptr null, ptr %4, align 8, !tbaa !52
  %16 = getelementptr inbounds nuw i8, ptr %0, i64 40
  store i8 %15, ptr %16, align 8, !tbaa !3
  ret void
}